; Function Attrs: mustprogress uwtable
define void @_ZN8QuantLib7CPISwap7results5resetEv(ptr noundef nonnull align 8 dereferenceable(200) %this) unnamed_addr #8 align 2 {
entry:
  tail call void @_ZN8QuantLib4Swap7results5resetEv(ptr noundef nonnull align 8 dereferenceable(184) %this)
  %fairRate = getelementptr inbounds nuw i8, ptr %this, i64 184
  store double 0x47EFFFFFE0000000, ptr %fairRate, align 8, !tbaa !155
  %fairSpread = getelementptr inbounds nuw i8, ptr %this, i64 192
  store double 0x47EFFFFFE0000000, ptr %fairSpread, align 8, !tbaa !159
  ret void
}